target datalayout = "e-m:e-p270:32:32-p271:32:32-p272:64:64-i64:64-i128:128-f80:128-n8:16:32:64-S128"
target triple = "x86_64-pc-linux-gnu"

%struct.hwloc_calc_location_context_s = type { ptr, i32, i32, i32, i32 }
%struct.hwloc_calc_process_location_set_cbdata_s = type { ptr, ptr, ptr }
%struct.hwloc_obj = type { i32, ptr, i32, ptr, i64, ptr, i32, i32, ptr, ptr, ptr, i32, ptr, ptr, i32, ptr, ptr, ptr, i32, i32, ptr, i32, ptr, i32, ptr, ptr, ptr, ptr, ptr, %struct.hwloc_infos_s, ptr, i64 }
%struct.hwloc_infos_s = type { ptr, i32, i32 }

@stderr = external global ptr, align 8
@.str.152 = private unnamed_addr constant [17 x i8] c"adding %s to %s\0A\00", align 1
@.str.153 = private unnamed_addr constant [21 x i8] c"clearing %s from %s\0A\00", align 1
@.str.154 = private unnamed_addr constant [20 x i8] c"and'ing %s from %s\0A\00", align 1
@.str.155 = private unnamed_addr constant [20 x i8] c"xor'ing %s from %s\0A\00", align 1

; Function Attrs: inlinehint nounwind uwtable
define internal i32 @hwloc_calc_append_set(ptr noundef %0, ptr noundef %1, i32 noundef %2, i32 noundef %3) #2 {
  %5 = alloca ptr, align 8
  %6 = alloca ptr, align 8
  %7 = alloca i32, align 4
  %8 = alloca i32, align 4
  %9 = alloca ptr, align 8
  %10 = alloca ptr, align 8
  store ptr %0, ptr %5, align 8, !tbaa !17
  store ptr %1, ptr %6, align 8, !tbaa !17
  store i32 %2, ptr %7, align 4, !tbaa !11
  store i32 %3, ptr %8, align 4, !tbaa !11
  call void @llvm.lifetime.start.p0(i64 8, ptr %9) #11
  call void @llvm.lifetime.start.p0(i64 8, ptr %10) #11
  %11 = load ptr, ptr %6, align 8, !tbaa !17
  %12 = call i32 @hwloc_bitmap_asprintf(ptr noundef %9, ptr noundef %11)
  %13 = load ptr, ptr %5, align 8, !tbaa !17
  %14 = call i32 @hwloc_bitmap_asprintf(ptr noundef %10, ptr noundef %13)
  %15 = load i32, ptr %7, align 4, !tbaa !11
  switch i32 %15, label %68 [
    i32 0, label %16
    i32 1, label %29
    i32 2, label %42
    i32 3, label %55
  ]

16:                                               ; preds = %4
  %17 = load i32, ptr %8, align 4, !tbaa !11
  %18 = icmp sgt i32 %17, 0
  br i1 %18, label %19, label %24

19:                                               ; preds = %16
  %20 = load ptr, ptr @stderr, align 8, !tbaa !9
  %21 = load ptr, ptr %9, align 8, !tbaa !4
  %22 = load ptr, ptr %10, align 8, !tbaa !4
  %23 = call i32 (ptr, ptr, ...) @fprintf(ptr noundef %20, ptr noundef @.str.152, ptr noundef %21, ptr noundef %22) #11
  br label %24

24:                                               ; preds = %19, %16
  %25 = load ptr, ptr %5, align 8, !tbaa !17
  %26 = load ptr, ptr %5, align 8, !tbaa !17
  %27 = load ptr, ptr %6, align 8, !tbaa !17
  %28 = call i32 @hwloc_bitmap_or(ptr noundef %25, ptr noundef %26, ptr noundef %27)
  br label %69

29:                                               ; preds = %4
  %30 = load i32, ptr %8, align 4, !tbaa !11
  %31 = icmp sgt i32 %30, 0
  br i1 %31, label %32, label %37

32:                                               ; preds = %29
  %33 = load ptr, ptr @stderr, align 8, !tbaa !9
  %34 = load ptr, ptr %9, align 8, !tbaa !4
  %35 = load ptr, ptr %10, align 8, !tbaa !4
  %36 = call i32 (ptr, ptr, ...) @fprintf(ptr noundef %33, ptr noundef @.str.153, ptr noundef %34, ptr noundef %35) #11
  br label %37

37:                                               ; preds = %32, %29
  %38 = load ptr, ptr %5, align 8, !tbaa !17
  %39 = load ptr, ptr %5, align 8, !tbaa !17
  %40 = load ptr, ptr %6, align 8, !tbaa !17
  %41 = call i32 @hwloc_bitmap_andnot(ptr noundef %38, ptr noundef %39, ptr noundef %40)
  br label %69

42:                                               ; preds = %4
  %43 = load i32, ptr %8, align 4, !tbaa !11
  %44 = icmp sgt i32 %43, 0
  br i1 %44, label %45, label %50

45:                                               ; preds = %42
  %46 = load ptr, ptr @stderr, align 8, !tbaa !9
  %47 = load ptr, ptr %9, align 8, !tbaa !4
  %48 = load ptr, ptr %10, align 8, !tbaa !4
  %49 = call i32 (ptr, ptr, ...) @fprintf(ptr noundef %46, ptr noundef @.str.154, ptr noundef %47, ptr noundef %48) #11
  br label %50

50:                                               ; preds = %45, %42
  %51 = load ptr, ptr %5, align 8, !tbaa !17
  %52 = load ptr, ptr %5, align 8, !tbaa !17
  %53 = load ptr, ptr %6, align 8, !tbaa !17
  %54 = call i32 @hwloc_bitmap_and(ptr noundef %51, ptr noundef %52, ptr noundef %53)
  br label %69

55:                                               ; preds = %4
  %56 = load i32, ptr %8, align 4, !tbaa !11
  %57 = icmp sgt i32 %56, 0
  br i1 %57, label %58, label %63

58:                                               ; preds = %55
  %59 = load ptr, ptr @stderr, align 8, !tbaa !9
  %60 = load ptr, ptr %9, align 8, !tbaa !4
  %61 = load ptr, ptr %10, align 8, !tbaa !4
  %62 = call i32 (ptr, ptr, ...) @fprintf(ptr noundef %59, ptr noundef @.str.155, ptr noundef %60, ptr noundef %61) #11
  br label %63

63:                                               ; preds = %58, %55
  %64 = load ptr, ptr %5, align 8, !tbaa !17
  %65 = load ptr, ptr %5, align 8, !tbaa !17
  %66 = load ptr, ptr %6, align 8, !tbaa !17
  %67 = call i32 @hwloc_bitmap_xor(ptr noundef %64, ptr noundef %65, ptr noundef %66)
  br label %69

68:                                               ; preds = %4
  br label %69

69:                                               ; preds = %68, %63, %50, %37, %24
  %70 = load ptr, ptr %9, align 8, !tbaa !4
  call void @free(ptr noundef %70) #11
  %71 = load ptr, ptr %10, align 8, !tbaa !4
  call void @free(ptr noundef %71) #11
  call void @llvm.lifetime.end.p0(i64 8, ptr %10) #11
  call void @llvm.lifetime.end.p0(i64 8, ptr %9) #11
  ret i32 0
}

; Function Attrs: inlinehint nounwind uwtable
define internal void @hwloc_calc_process_location_set_cb(ptr noundef %0, ptr noundef %1, ptr noundef %2) #2 {
  %4 = alloca ptr, align 8
  %5 = alloca ptr, align 8
  %6 = alloca ptr, align 8
  %7 = alloca i32, align 4
  %8 = alloca ptr, align 8
  %9 = alloca ptr, align 8
  %10 = alloca ptr, align 8
  %11 = alloca i32, align 4
  store ptr %0, ptr %4, align 8, !tbaa !43
  store ptr %1, ptr %5, align 8, !tbaa !79
  store ptr %2, ptr %6, align 8, !tbaa !40
  call void @llvm.lifetime.start.p0(i64 4, ptr %7) #11
  %12 = load ptr, ptr %4, align 8, !tbaa !43
  %13 = getelementptr inbounds nuw %struct.hwloc_calc_location_context_s, ptr %12, i32 0, i32 4
  %14 = load i32, ptr %13, align 4, !tbaa !29
  store i32 %14, ptr %7, align 4, !tbaa !11
  call void @llvm.lifetime.start.p0(i64 8, ptr %8) #11
  %15 = load ptr, ptr %5, align 8, !tbaa !79
  store ptr %15, ptr %8, align 8, !tbaa !87
  call void @llvm.lifetime.start.p0(i64 8, ptr %9) #11
  %16 = load ptr, ptr %8, align 8, !tbaa !87
  %17 = getelementptr inbounds nuw %struct.hwloc_calc_process_location_set_cbdata_s, ptr %16, i32 0, i32 1
  %18 = load ptr, ptr %17, align 8, !tbaa !47
  store ptr %18, ptr %9, align 8, !tbaa !17
  call void @llvm.lifetime.start.p0(i64 8, ptr %10) #11
  %19 = load ptr, ptr %8, align 8, !tbaa !87
  %20 = getelementptr inbounds nuw %struct.hwloc_calc_process_location_set_cbdata_s, ptr %19, i32 0, i32 2
  %21 = load ptr, ptr %20, align 8, !tbaa !49
  store ptr %21, ptr %10, align 8, !tbaa !17
  br label %22

22:                                               ; preds = %33, %3
  %23 = load ptr, ptr %6, align 8, !tbaa !40
  %24 = icmp ne ptr %23, null
  br i1 %24, label %25, label %31

25:                                               ; preds = %22
  %26 = load ptr, ptr %6, align 8, !tbaa !40
  %27 = getelementptr inbounds nuw %struct.hwloc_obj, ptr %26, i32 0, i32 25
  %28 = load ptr, ptr %27, align 8, !tbaa !89
  %29 = icmp ne ptr %28, null
  %30 = xor i1 %29, true
  br label %31

31:                                               ; preds = %25, %22
  %32 = phi i1 [ false, %22 ], [ %30, %25 ]
  br i1 %32, label %33, label %37

33:                                               ; preds = %31
  %34 = load ptr, ptr %6, align 8, !tbaa !40
  %35 = getelementptr inbounds nuw %struct.hwloc_obj, ptr %34, i32 0, i32 10
  %36 = load ptr, ptr %35, align 8, !tbaa !90
  store ptr %36, ptr %6, align 8, !tbaa !40
  br label %22, !llvm.loop !91

37:                                               ; preds = %31
  %38 = load ptr, ptr %6, align 8, !tbaa !40
  %39 = icmp ne ptr %38, null
  br i1 %39, label %41, label %40

40:                                               ; preds = %37
  store i32 1, ptr %11, align 4
  br label %54

41:                                               ; preds = %37
  %42 = load ptr, ptr %9, align 8, !tbaa !17
  %43 = load ptr, ptr %6, align 8, !tbaa !40
  %44 = getelementptr inbounds nuw %struct.hwloc_obj, ptr %43, i32 0, i32 25
  %45 = load ptr, ptr %44, align 8, !tbaa !89
  %46 = load i32, ptr %7, align 4, !tbaa !11
  %47 = call i32 @hwloc_calc_append_set(ptr noundef %42, ptr noundef %45, i32 noundef 0, i32 noundef %46)
  %48 = load ptr, ptr %10, align 8, !tbaa !17
  %49 = load ptr, ptr %6, align 8, !tbaa !40
  %50 = getelementptr inbounds nuw %struct.hwloc_obj, ptr %49, i32 0, i32 27
  %51 = load ptr, ptr %50, align 8, !tbaa !92
  %52 = load i32, ptr %7, align 4, !tbaa !11
  %53 = call i32 @hwloc_calc_append_set(ptr noundef %48, ptr noundef %51, i32 noundef 0, i32 noundef %52)
  store i32 0, ptr %11, align 4
  br label %54

54:                                               ; preds = %41, %40
  call void @llvm.lifetime.end.p0(i64 8, ptr %10) #11
  call void @llvm.lifetime.end.p0(i64 8, ptr %9) #11
  call void @llvm.lifetime.end.p0(i64 8, ptr %8) #11
  call void @llvm.lifetime.end.p0(i64 4, ptr %7) #11
  %55 = load i32, ptr %11, align 4
  switch i32 %55, label %57 [
    i32 0, label %56
    i32 1, label %56
  ]

56:                                               ; preds = %54, %54
  ret void

57:                                               ; preds = %54
  unreachable
}