; Function Attrs: inlinehint nounwind uwtable
define internal fastcc void @hwloc_calc_process_location_set_cb(ptr noundef readonly captures(none) %0, ptr noundef readonly captures(none) %1, ptr noundef readonly captures(address_is_null) %2) unnamed_addr #14 {
  %4 = alloca ptr, align 8
  %5 = alloca ptr, align 8
  %6 = alloca ptr, align 8
  %7 = alloca ptr, align 8
  %8 = getelementptr inbounds nuw i8, ptr %0, i64 20
  %9 = load i32, ptr %8, align 4, !tbaa !31
  %10 = getelementptr inbounds nuw i8, ptr %1, i64 8
  %11 = load ptr, ptr %10, align 8, !tbaa !38
  %12 = getelementptr inbounds nuw i8, ptr %1, i64 16
  %13 = load ptr, ptr %12, align 8, !tbaa !41
  %.not17 = icmp eq ptr %2, null
  br i1 %.not17, label %.critedge14, label %.lr.ph

.lr.ph:                                           ; preds = %3, %16
  %.018 = phi ptr [ %18, %16 ], [ %2, %3 ]
  %14 = getelementptr inbounds nuw i8, ptr %.018, i64 184
  %15 = load ptr, ptr %14, align 8, !tbaa !59
  %.not13 = icmp eq ptr %15, null
  br i1 %.not13, label %16, label %.critedge

16:                                               ; preds = %.lr.ph
  %17 = getelementptr inbounds nuw i8, ptr %.018, i64 72
  %18 = load ptr, ptr %17, align 8, !tbaa !79
  %.not = icmp eq ptr %18, null
  br i1 %.not, label %.critedge14, label %.lr.ph, !llvm.loop !80

.critedge:                                        ; preds = %.lr.ph
  call void @llvm.lifetime.start.p0(i64 8, ptr nonnull %6) #25
  call void @llvm.lifetime.start.p0(i64 8, ptr nonnull %7) #25
  %19 = call i32 @hwloc_bitmap_asprintf(ptr noundef nonnull %6, ptr noundef nonnull %15) #25
  %20 = call i32 @hwloc_bitmap_asprintf(ptr noundef nonnull %7, ptr noundef %11) #25
  %21 = icmp sgt i32 %9, 0
  br i1 %21, label %22, label %hwloc_calc_append_set.exit

22:                                               ; preds = %.critedge
  %23 = load ptr, ptr @stderr, align 8, !tbaa !9
  %24 = load ptr, ptr %6, align 8, !tbaa !4
  %25 = load ptr, ptr %7, align 8, !tbaa !4
  %26 = call i32 (ptr, ptr, ...) @fprintf(ptr noundef %23, ptr noundef nonnull @.str.152, ptr noundef %24, ptr noundef %25) #27
  br label %hwloc_calc_append_set.exit

hwloc_calc_append_set.exit:                       ; preds = %.critedge, %22
  %27 = call i32 @hwloc_bitmap_or(ptr noundef %11, ptr noundef %11, ptr noundef nonnull %15) #25
  %28 = load ptr, ptr %6, align 8, !tbaa !4
  call void @free(ptr noundef %28) #25
  %29 = load ptr, ptr %7, align 8, !tbaa !4
  call void @free(ptr noundef %29) #25
  call void @llvm.lifetime.end.p0(i64 8, ptr nonnull %7) #25
  call void @llvm.lifetime.end.p0(i64 8, ptr nonnull %6) #25
  %30 = getelementptr inbounds nuw i8, ptr %.018, i64 200
  %31 = load ptr, ptr %30, align 8, !tbaa !81
  call void @llvm.lifetime.start.p0(i64 8, ptr nonnull %4) #25
  call void @llvm.lifetime.start.p0(i64 8, ptr nonnull %5) #25
  %32 = call i32 @hwloc_bitmap_asprintf(ptr noundef nonnull %4, ptr noundef %31) #25
  %33 = call i32 @hwloc_bitmap_asprintf(ptr noundef nonnull %5, ptr noundef %13) #25
  br i1 %21, label %34, label %hwloc_calc_append_set.exit15

34:                                               ; preds = %hwloc_calc_append_set.exit
  %35 = load ptr, ptr @stderr, align 8, !tbaa !9
  %36 = load ptr, ptr %4, align 8, !tbaa !4
  %37 = load ptr, ptr %5, align 8, !tbaa !4
  %38 = call i32 (ptr, ptr, ...) @fprintf(ptr noundef %35, ptr noundef nonnull @.str.152, ptr noundef %36, ptr noundef %37) #27
  br label %hwloc_calc_append_set.exit15

hwloc_calc_append_set.exit15:                     ; preds = %hwloc_calc_append_set.exit, %34
  %39 = call i32 @hwloc_bitmap_or(ptr noundef %13, ptr noundef %13, ptr noundef %31) #25
  %40 = load ptr, ptr %4, align 8, !tbaa !4
  call void @free(ptr noundef %40) #25
  %41 = load ptr, ptr %5, align 8, !tbaa !4
  call void @free(ptr noundef %41) #25
  call void @llvm.lifetime.end.p0(i64 8, ptr nonnull %5) #25
  call void @llvm.lifetime.end.p0(i64 8, ptr nonnull %4) #25
  br label %.critedge14

.critedge14:                                      ; preds = %16, %3, %hwloc_calc_append_set.exit15
  ret void
}